target datalayout = "e-m:e-p270:32:32-p271:32:32-p272:64:64-i64:64-i128:128-f80:128-n8:16:32:64-S128"
target triple = "x86_64-pc-linux-gnu"

%struct._zval_struct = type { %union._zend_value, %union.anon, %union.anon.2 }
%union._zend_value = type { i64 }
%union.anon = type { i32 }
%union.anon.2 = type { i32 }
%struct._zend_execute_data = type { ptr, ptr, ptr, ptr, %struct._zval_struct, ptr, ptr, ptr, ptr }

; Function Attrs: nounwind uwtable
define hidden void @zif_floatval(ptr noundef %0, ptr noundef %1) #0 {
  %3 = alloca ptr, align 8
  %4 = alloca ptr, align 8
  %5 = alloca ptr, align 8
  %6 = alloca ptr, align 8
  %7 = alloca ptr, align 8
  %8 = alloca i8, align 1
  %9 = alloca ptr, align 8
  %10 = alloca ptr, align 8
  %11 = alloca ptr, align 8
  %12 = alloca i32, align 4
  %13 = alloca i32, align 4
  %14 = alloca i32, align 4
  %15 = alloca i32, align 4
  %16 = alloca i32, align 4
  %17 = alloca ptr, align 8
  %18 = alloca ptr, align 8
  %19 = alloca i32, align 4
  %20 = alloca ptr, align 8
  %21 = alloca i8, align 1
  %22 = alloca i8, align 1
  %23 = alloca i32, align 4
  %24 = alloca ptr, align 8
  store ptr %0, ptr %9, align 8
  store ptr %1, ptr %10, align 8
  br label %25

25:                                               ; preds = %2
  store i32 0, ptr %12, align 4
  store i32 1, ptr %13, align 4
  store i32 1, ptr %14, align 4
  %26 = load ptr, ptr %9, align 8
  %27 = getelementptr inbounds %struct._zend_execute_data, ptr %26, i32 0, i32 4
  %28 = getelementptr inbounds %struct._zval_struct, ptr %27, i32 0, i32 2
  %29 = load i32, ptr %28, align 4
  store i32 %29, ptr %15, align 4
  store i32 0, ptr %16, align 4
  store ptr null, ptr %18, align 8
  store i32 0, ptr %19, align 4
  store ptr null, ptr %20, align 8
  store i8 0, ptr %21, align 1
  store i8 0, ptr %22, align 1
  store i32 0, ptr %23, align 4
  br label %30

30:                                               ; preds = %25
  %31 = load i32, ptr %15, align 4
  %32 = load i32, ptr %13, align 4
  %33 = icmp ult i32 %31, %32
  %34 = xor i1 %33, true
  %35 = xor i1 %34, true
  %36 = zext i1 %35 to i32
  %37 = sext i32 %36 to i64
  %38 = icmp ne i64 %37, 0
  br i1 %38, label %48, label %39

39:                                               ; preds = %30
  %40 = load i32, ptr %15, align 4
  %41 = load i32, ptr %14, align 4
  %42 = icmp ugt i32 %40, %41
  %43 = xor i1 %42, true
  %44 = xor i1 %43, true
  %45 = zext i1 %44 to i32
  %46 = sext i32 %45 to i64
  %47 = icmp ne i64 %46, 0
  br i1 %47, label %48, label %51

48:                                               ; preds = %39, %30
  %49 = load i32, ptr %13, align 4
  %50 = load i32, ptr %14, align 4
  call void @zend_wrong_parameters_count_error(i32 noundef %49, i32 noundef %50)
  store i32 1, ptr %23, align 4
  br label %117

51:                                               ; preds = %39
  %52 = load ptr, ptr %9, align 8
  %53 = getelementptr inbounds %struct._zval_struct, ptr %52, i64 4
  store ptr %53, ptr %17, align 8
  %54 = load i32, ptr %16, align 4
  %55 = add i32 %54, 1
  store i32 %55, ptr %16, align 4
  %56 = load i32, ptr %16, align 4
  %57 = load i32, ptr %13, align 4
  %58 = icmp ule i32 %56, %57
  br i1 %58, label %64, label %59

59:                                               ; preds = %51
  %60 = load i8, ptr %22, align 1
  %61 = trunc i8 %60 to i1
  %62 = zext i1 %61 to i32
  %63 = icmp eq i32 %62, 1
  br label %64

64:                                               ; preds = %59, %51
  %65 = phi i1 [ true, %51 ], [ %63, %59 ]
  call void @llvm.assume(i1 %65)
  %66 = load i32, ptr %16, align 4
  %67 = load i32, ptr %13, align 4
  %68 = icmp ugt i32 %66, %67
  br i1 %68, label %74, label %69

69:                                               ; preds = %64
  %70 = load i8, ptr %22, align 1
  %71 = trunc i8 %70 to i1
  %72 = zext i1 %71 to i32
  %73 = icmp eq i32 %72, 0
  br label %74

74:                                               ; preds = %69, %64
  %75 = phi i1 [ true, %64 ], [ %73, %69 ]
  call void @llvm.assume(i1 %75)
  %76 = load i8, ptr %22, align 1
  %77 = trunc i8 %76 to i1
  br i1 %77, label %78, label %89

78:                                               ; preds = %74
  %79 = load i32, ptr %16, align 4
  %80 = load i32, ptr %15, align 4
  %81 = icmp ugt i32 %79, %80
  %82 = xor i1 %81, true
  %83 = xor i1 %82, true
  %84 = zext i1 %83 to i32
  %85 = sext i32 %84 to i64
  %86 = icmp ne i64 %85, 0
  br i1 %86, label %87, label %88

87:                                               ; preds = %78
  br label %117

88:                                               ; preds = %78
  br label %89

89:                                               ; preds = %88, %74
  %90 = load ptr, ptr %17, align 8
  %91 = getelementptr inbounds %struct._zval_struct, ptr %90, i32 1
  store ptr %91, ptr %17, align 8
  %92 = load ptr, ptr %17, align 8
  store ptr %92, ptr %18, align 8
  %93 = load ptr, ptr %18, align 8
  store ptr %93, ptr %6, align 8
  store ptr %11, ptr %7, align 8
  store i8 0, ptr %8, align 1
  %94 = load i8, ptr %8, align 1
  %95 = trunc i8 %94 to i1
  br i1 %95, label %96, label %104

96:                                               ; preds = %89
  %97 = load ptr, ptr %6, align 8
  store ptr %97, ptr %5, align 8
  %98 = load ptr, ptr %5, align 8
  %99 = getelementptr inbounds %struct._zval_struct, ptr %98, i32 0, i32 1
  %100 = load i8, ptr %99, align 8
  %101 = zext i8 %100 to i32
  %102 = icmp eq i32 %101, 1
  br i1 %102, label %103, label %104

103:                                              ; preds = %96
  br label %106

104:                                              ; preds = %96, %89
  %105 = load ptr, ptr %6, align 8
  br label %106

106:                                              ; preds = %104, %103
  %107 = phi ptr [ null, %103 ], [ %105, %104 ]
  %108 = load ptr, ptr %7, align 8
  store ptr %107, ptr %108, align 8
  %109 = load i32, ptr %16, align 4
  %110 = load i32, ptr %14, align 4
  %111 = icmp eq i32 %109, %110
  br i1 %111, label %115, label %112

112:                                              ; preds = %106
  %113 = load i32, ptr %14, align 4
  %114 = icmp eq i32 %113, -1
  br label %115

115:                                              ; preds = %112, %106
  %116 = phi i1 [ true, %106 ], [ %114, %112 ]
  call void @llvm.assume(i1 %116)
  br label %117

117:                                              ; preds = %115, %87, %48
  %118 = load i32, ptr %23, align 4
  %119 = icmp ne i32 %118, 0
  %120 = xor i1 %119, true
  %121 = xor i1 %120, true
  %122 = zext i1 %121 to i32
  %123 = sext i32 %122 to i64
  %124 = icmp ne i64 %123, 0
  br i1 %124, label %125, label %131

125:                                              ; preds = %117
  %126 = load i32, ptr %23, align 4
  %127 = load i32, ptr %16, align 4
  %128 = load ptr, ptr %20, align 8
  %129 = load i32, ptr %19, align 4
  %130 = load ptr, ptr %18, align 8
  call void @zend_wrong_parameter_error(i32 noundef %126, i32 noundef %127, ptr noundef %128, i32 noundef %129, ptr noundef %130)
  br label %156

131:                                              ; preds = %117
  br label %132

132:                                              ; preds = %131
  br label %133

133:                                              ; preds = %132
  br label %134

134:                                              ; preds = %133
  %135 = load ptr, ptr %10, align 8
  store ptr %135, ptr %24, align 8
  %136 = load ptr, ptr %11, align 8
  store ptr %136, ptr %4, align 8
  %137 = load ptr, ptr %4, align 8
  store ptr %137, ptr %3, align 8
  %138 = load ptr, ptr %3, align 8
  %139 = getelementptr inbounds %struct._zval_struct, ptr %138, i32 0, i32 1
  %140 = load i8, ptr %139, align 8
  %141 = zext i8 %140 to i32
  %142 = icmp eq i32 %141, 5
  br i1 %142, label %143, label %146

143:                                              ; preds = %134
  %144 = load ptr, ptr %4, align 8
  %145 = load double, ptr %144, align 8
  br label %149

146:                                              ; preds = %134
  %147 = load ptr, ptr %4, align 8
  %148 = call double @zval_get_double_func(ptr noundef %147) #11
  br label %149

149:                                              ; preds = %146, %143
  %150 = phi double [ %145, %143 ], [ %148, %146 ]
  %151 = load ptr, ptr %24, align 8
  %152 = getelementptr inbounds %struct._zval_struct, ptr %151, i32 0, i32 0
  store double %150, ptr %152, align 8
  %153 = load ptr, ptr %24, align 8
  %154 = getelementptr inbounds %struct._zval_struct, ptr %153, i32 0, i32 1
  store i32 5, ptr %154, align 8
  br label %155

155:                                              ; preds = %149
  br label %156

156:                                              ; preds = %155, %125
  ret void
}