; Function Attrs: nounwind uwtable
define hidden void @zif_floatval(ptr noundef %0, ptr nocapture noundef writeonly %1) local_unnamed_addr #0 {
  %3 = getelementptr inbounds i8, ptr %0, i64 44
  %4 = load i32, ptr %3, align 4
  %cond = icmp eq i32 %4, 1
  br i1 %cond, label %6, label %5

5:                                                ; preds = %2
  tail call void @zend_wrong_parameters_count_error(i32 noundef 1, i32 noundef 1) #8
  tail call void @zend_wrong_parameter_error(i32 noundef 1, i32 noundef 0, ptr noundef null, i32 noundef 0, ptr noundef null) #8
  br label %18

6:                                                ; preds = %2
  %7 = getelementptr inbounds i8, ptr %0, i64 80
  %8 = getelementptr inbounds i8, ptr %0, i64 88
  %9 = load i8, ptr %8, align 8
  %10 = icmp eq i8 %9, 5
  br i1 %10, label %11, label %13

11:                                               ; preds = %6
  %12 = load double, ptr %7, align 8
  br label %15

13:                                               ; preds = %6
  %14 = tail call double @zval_get_double_func(ptr noundef nonnull %7) #8
  br label %15

15:                                               ; preds = %13, %11
  %16 = phi double [ %12, %11 ], [ %14, %13 ]
  store double %16, ptr %1, align 8
  %17 = getelementptr inbounds i8, ptr %1, i64 8
  store i32 5, ptr %17, align 8
  br label %18

18:                                               ; preds = %15, %5
  ret void
}